target datalayout = "e-m:e-p270:32:32-p271:32:32-p272:64:64-i64:64-i128:128-f80:128-n8:16:32:64-S128"
target triple = "x86_64-pc-linux-gnu"

%struct.uv__queue = type { ptr, ptr }
%struct.uv__io_s = type { ptr, %struct.uv__queue, %struct.uv__queue, i32, i32, i32 }
%struct.sockaddr = type { i16, [14 x i8] }
%struct.uv_tcp_s = type { ptr, ptr, i32, ptr, %struct.uv__queue, %union.anon.0, ptr, i32, i64, ptr, ptr, ptr, ptr, %struct.uv__io_s, %struct.uv__queue, %struct.uv__queue, ptr, i32, i32, ptr }
%union.anon.0 = type { [4 x ptr] }

; Function Attrs: nounwind uwtable
define dso_local i32 @uv_tcp_connect(ptr noundef %0, ptr noundef %1, ptr noundef %2, ptr noundef %3) #0 {
  %5 = alloca i32, align 4
  %6 = alloca ptr, align 8
  %7 = alloca ptr, align 8
  %8 = alloca ptr, align 8
  %9 = alloca ptr, align 8
  %10 = alloca i32, align 4
  %11 = alloca i32, align 4
  store ptr %0, ptr %6, align 8
  store ptr %1, ptr %7, align 8
  store ptr %2, ptr %8, align 8
  store ptr %3, ptr %9, align 8
  call void @llvm.lifetime.start.p0(i64 4, ptr %10) #13
  %12 = load ptr, ptr %7, align 8
  %13 = getelementptr inbounds nuw %struct.uv_tcp_s, ptr %12, i32 0, i32 2
  %14 = load i32, ptr %13, align 8
  %15 = icmp ne i32 %14, 12
  br i1 %15, label %16, label %17

16:                                               ; preds = %4
  store i32 -22, ptr %5, align 4
  store i32 1, ptr %11, align 4
  br label %40

17:                                               ; preds = %4
  %18 = load ptr, ptr %8, align 8
  %19 = getelementptr inbounds nuw %struct.sockaddr, ptr %18, i32 0, i32 0
  %20 = load i16, ptr %19, align 2
  %21 = zext i16 %20 to i32
  %22 = icmp eq i32 %21, 2
  br i1 %22, label %23, label %24

23:                                               ; preds = %17
  store i32 16, ptr %10, align 4
  br label %33

24:                                               ; preds = %17
  %25 = load ptr, ptr %8, align 8
  %26 = getelementptr inbounds nuw %struct.sockaddr, ptr %25, i32 0, i32 0
  %27 = load i16, ptr %26, align 2
  %28 = zext i16 %27 to i32
  %29 = icmp eq i32 %28, 10
  br i1 %29, label %30, label %31

30:                                               ; preds = %24
  store i32 28, ptr %10, align 4
  br label %32

31:                                               ; preds = %24
  store i32 -22, ptr %5, align 4
  store i32 1, ptr %11, align 4
  br label %40

32:                                               ; preds = %30
  br label %33

33:                                               ; preds = %32, %23
  %34 = load ptr, ptr %6, align 8
  %35 = load ptr, ptr %7, align 8
  %36 = load ptr, ptr %8, align 8
  %37 = load i32, ptr %10, align 4
  %38 = load ptr, ptr %9, align 8
  %39 = call i32 @uv__tcp_connect(ptr noundef %34, ptr noundef %35, ptr noundef %36, i32 noundef %37, ptr noundef %38)
  store i32 %39, ptr %5, align 4
  store i32 1, ptr %11, align 4
  br label %40

40:                                               ; preds = %33, %31, %16
  call void @llvm.lifetime.end.p0(i64 4, ptr %10) #13
  %41 = load i32, ptr %5, align 4
  ret i32 %41
}