; Function Attrs: nounwind uwtable
define dso_local i32 @uv_tcp_connect(ptr noundef %0, ptr noundef %1, ptr noundef %2, ptr noundef %3) local_unnamed_addr #0 {
  %5 = getelementptr inbounds nuw i8, ptr %1, i64 16
  %6 = load i32, ptr %5, align 8
  %.not = icmp eq i32 %6, 12
  br i1 %.not, label %7, label %12

7:                                                ; preds = %4
  %8 = load i16, ptr %2, align 2
  switch i16 %8, label %12 [
    i16 2, label %10
    i16 10, label %9
  ]

9:                                                ; preds = %7
  br label %10

10:                                               ; preds = %7, %9
  %.0 = phi i32 [ 28, %9 ], [ 16, %7 ]
  %11 = tail call i32 @uv__tcp_connect(ptr noundef %0, ptr noundef nonnull %1, ptr noundef nonnull %2, i32 noundef %.0, ptr noundef %3) #26
  br label %12

12:                                               ; preds = %7, %4, %10
  %.08 = phi i32 [ %11, %10 ], [ -22, %4 ], [ -22, %7 ]
  ret i32 %.08
}